target datalayout = "e-m:e-p270:32:32-p271:32:32-p272:64:64-i64:64-i128:128-f80:128-n8:16:32:64-S128"
target triple = "x86_64-pc-linux-gnu"

%struct.png_image_write_control = type { ptr, ptr, i32, ptr, i32, ptr, i64, ptr, ptr, i64, i64 }
%struct.png_image = type { ptr, i32, i32, i32, i32, i32, i32, i32, [64 x i8] }
%struct.png_control = type { ptr, ptr, ptr, ptr, i64, i8 }

@png_sRGB_base = external constant [512 x i16], align 16
@png_sRGB_delta = external constant [512 x i8], align 16

; Function Attrs: nounwind uwtable
define internal zeroext i8 @png_unpremultiply(i32 noundef %0, i32 noundef %1, i32 noundef %2) #0 {
  %4 = alloca i8, align 1
  %5 = alloca i32, align 4
  %6 = alloca i32, align 4
  %7 = alloca i32, align 4
  store i32 %0, ptr %5, align 4
  store i32 %1, ptr %6, align 4
  store i32 %2, ptr %7, align 4
  %8 = load i32, ptr %5, align 4
  %9 = load i32, ptr %6, align 4
  %10 = icmp uge i32 %8, %9
  br i1 %10, label %14, label %11

11:                                               ; preds = %3
  %12 = load i32, ptr %6, align 4
  %13 = icmp ult i32 %12, 128
  br i1 %13, label %14, label %15

14:                                               ; preds = %11, %3
  store i8 -1, ptr %4, align 1
  br label %54

15:                                               ; preds = %11
  %16 = load i32, ptr %5, align 4
  %17 = icmp ugt i32 %16, 0
  br i1 %17, label %18, label %53

18:                                               ; preds = %15
  %19 = load i32, ptr %6, align 4
  %20 = icmp ult i32 %19, 65407
  br i1 %20, label %21, label %29

21:                                               ; preds = %18
  %22 = load i32, ptr %7, align 4
  %23 = load i32, ptr %5, align 4
  %24 = mul i32 %23, %22
  store i32 %24, ptr %5, align 4
  %25 = load i32, ptr %5, align 4
  %26 = add i32 %25, 64
  store i32 %26, ptr %5, align 4
  %27 = load i32, ptr %5, align 4
  %28 = lshr i32 %27, 7
  store i32 %28, ptr %5, align 4
  br label %32

29:                                               ; preds = %18
  %30 = load i32, ptr %5, align 4
  %31 = mul i32 %30, 255
  store i32 %31, ptr %5, align 4
  br label %32

32:                                               ; preds = %29, %21
  %33 = load i32, ptr %5, align 4
  %34 = lshr i32 %33, 15
  %35 = zext i32 %34 to i64
  %36 = getelementptr inbounds [512 x i16], ptr @png_sRGB_base, i64 0, i64 %35
  %37 = load i16, ptr %36, align 2
  %38 = zext i16 %37 to i32
  %39 = load i32, ptr %5, align 4
  %40 = and i32 %39, 32767
  %41 = load i32, ptr %5, align 4
  %42 = lshr i32 %41, 15
  %43 = zext i32 %42 to i64
  %44 = getelementptr inbounds [512 x i8], ptr @png_sRGB_delta, i64 0, i64 %43
  %45 = load i8, ptr %44, align 1
  %46 = zext i8 %45 to i32
  %47 = mul i32 %40, %46
  %48 = lshr i32 %47, 12
  %49 = add i32 %38, %48
  %50 = lshr i32 %49, 8
  %51 = and i32 255, %50
  %52 = trunc i32 %51 to i8
  store i8 %52, ptr %4, align 1
  br label %54

53:                                               ; preds = %15
  store i8 0, ptr %4, align 1
  br label %54

54:                                               ; preds = %53, %32, %14
  %55 = load i8, ptr %4, align 1
  ret i8 %55
}

; Function Attrs: nounwind uwtable
define internal i32 @png_write_image_8bit(ptr noundef %0) #0 {
  %2 = alloca ptr, align 8
  %3 = alloca ptr, align 8
  %4 = alloca ptr, align 8
  %5 = alloca ptr, align 8
  %6 = alloca ptr, align 8
  %7 = alloca ptr, align 8
  %8 = alloca i32, align 4
  %9 = alloca i32, align 4
  %10 = alloca ptr, align 8
  %11 = alloca i32, align 4
  %12 = alloca ptr, align 8
  %13 = alloca ptr, align 8
  %14 = alloca i16, align 2
  %15 = alloca i8, align 1
  %16 = alloca i32, align 4
  %17 = alloca i32, align 4
  %18 = alloca ptr, align 8
  %19 = alloca ptr, align 8
  %20 = alloca ptr, align 8
  %21 = alloca i32, align 4
  store ptr %0, ptr %2, align 8
  %22 = load ptr, ptr %2, align 8
  store ptr %22, ptr %3, align 8
  %23 = load ptr, ptr %3, align 8
  %24 = getelementptr inbounds %struct.png_image_write_control, ptr %23, i32 0, i32 0
  %25 = load ptr, ptr %24, align 8
  store ptr %25, ptr %4, align 8
  %26 = load ptr, ptr %4, align 8
  %27 = getelementptr inbounds %struct.png_image, ptr %26, i32 0, i32 0
  %28 = load ptr, ptr %27, align 8
  %29 = getelementptr inbounds %struct.png_control, ptr %28, i32 0, i32 0
  %30 = load ptr, ptr %29, align 8
  store ptr %30, ptr %5, align 8
  %31 = load ptr, ptr %3, align 8
  %32 = getelementptr inbounds %struct.png_image_write_control, ptr %31, i32 0, i32 5
  %33 = load ptr, ptr %32, align 8
  store ptr %33, ptr %6, align 8
  %34 = load ptr, ptr %3, align 8
  %35 = getelementptr inbounds %struct.png_image_write_control, ptr %34, i32 0, i32 7
  %36 = load ptr, ptr %35, align 8
  store ptr %36, ptr %7, align 8
  %37 = load ptr, ptr %4, align 8
  %38 = getelementptr inbounds %struct.png_image, ptr %37, i32 0, i32 3
  %39 = load i32, ptr %38, align 8
  store i32 %39, ptr %8, align 4
  %40 = load ptr, ptr %4, align 8
  %41 = getelementptr inbounds %struct.png_image, ptr %40, i32 0, i32 4
  %42 = load i32, ptr %41, align 4
  %43 = and i32 %42, 2
  %44 = icmp ne i32 %43, 0
  %45 = select i1 %44, i32 3, i32 1
  store i32 %45, ptr %9, align 4
  %46 = load ptr, ptr %4, align 8
  %47 = getelementptr inbounds %struct.png_image, ptr %46, i32 0, i32 4
  %48 = load i32, ptr %47, align 4
  %49 = and i32 %48, 1
  %50 = icmp ne i32 %49, 0
  br i1 %50, label %51, label %155

51:                                               ; preds = %1
  %52 = load ptr, ptr %4, align 8
  %53 = getelementptr inbounds %struct.png_image, ptr %52, i32 0, i32 4
  %54 = load i32, ptr %53, align 4
  %55 = and i32 %54, 32
  %56 = icmp ne i32 %55, 0
  br i1 %56, label %57, label %62

57:                                               ; preds = %51
  store i32 -1, ptr %11, align 4
  %58 = load ptr, ptr %6, align 8
  %59 = getelementptr inbounds i16, ptr %58, i32 1
  store ptr %59, ptr %6, align 8
  %60 = load ptr, ptr %7, align 8
  %61 = getelementptr inbounds i8, ptr %60, i32 1
  store ptr %61, ptr %7, align 8
  br label %64

62:                                               ; preds = %51
  %63 = load i32, ptr %9, align 4
  store i32 %63, ptr %11, align 4
  br label %64

64:                                               ; preds = %62, %57
  %65 = load ptr, ptr %7, align 8
  %66 = load ptr, ptr %4, align 8
  %67 = getelementptr inbounds %struct.png_image, ptr %66, i32 0, i32 2
  %68 = load i32, ptr %67, align 4
  %69 = load i32, ptr %9, align 4
  %70 = add i32 %69, 1
  %71 = mul i32 %68, %70
  %72 = zext i32 %71 to i64
  %73 = getelementptr inbounds i8, ptr %65, i64 %72
  store ptr %73, ptr %10, align 8
  br label %74

74:                                               ; preds = %151, %64
  %75 = load i32, ptr %8, align 4
  %76 = icmp ugt i32 %75, 0
  br i1 %76, label %77, label %154

77:                                               ; preds = %74
  %78 = load ptr, ptr %6, align 8
  store ptr %78, ptr %12, align 8
  %79 = load ptr, ptr %7, align 8
  store ptr %79, ptr %13, align 8
  br label %80

80:                                               ; preds = %133, %77
  %81 = load ptr, ptr %13, align 8
  %82 = load ptr, ptr %10, align 8
  %83 = icmp ult ptr %81, %82
  br i1 %83, label %84, label %138

84:                                               ; preds = %80
  %85 = load ptr, ptr %12, align 8
  %86 = load i32, ptr %11, align 4
  %87 = sext i32 %86 to i64
  %88 = getelementptr inbounds i16, ptr %85, i64 %87
  %89 = load i16, ptr %88, align 2
  store i16 %89, ptr %14, align 2
  %90 = load i16, ptr %14, align 2
  %91 = zext i16 %90 to i32
  %92 = mul i32 %91, 255
  %93 = add i32 %92, 32895
  %94 = lshr i32 %93, 16
  %95 = trunc i32 %94 to i8
  store i8 %95, ptr %15, align 1
  store i32 0, ptr %16, align 4
  %96 = load i8, ptr %15, align 1
  %97 = load ptr, ptr %13, align 8
  %98 = load i32, ptr %11, align 4
  %99 = sext i32 %98 to i64
  %100 = getelementptr inbounds i8, ptr %97, i64 %99
  store i8 %96, ptr %100, align 1
  %101 = load i8, ptr %15, align 1
  %102 = zext i8 %101 to i32
  %103 = icmp sgt i32 %102, 0
  br i1 %103, label %104, label %116

104:                                              ; preds = %84
  %105 = load i8, ptr %15, align 1
  %106 = zext i8 %105 to i32
  %107 = icmp slt i32 %106, 255
  br i1 %107, label %108, label %116

108:                                              ; preds = %104
  %109 = load i16, ptr %14, align 2
  %110 = zext i16 %109 to i32
  %111 = ashr i32 %110, 1
  %112 = add nsw i32 2139062400, %111
  %113 = load i16, ptr %14, align 2
  %114 = zext i16 %113 to i32
  %115 = sdiv i32 %112, %114
  store i32 %115, ptr %16, align 4
  br label %116

116:                                              ; preds = %108, %104, %84
  %117 = load i32, ptr %9, align 4
  store i32 %117, ptr %17, align 4
  br label %118

118:                                              ; preds = %129, %116
  %119 = load ptr, ptr %12, align 8
  %120 = getelementptr inbounds i16, ptr %119, i32 1
  store ptr %120, ptr %12, align 8
  %121 = load i16, ptr %119, align 2
  %122 = zext i16 %121 to i32
  %123 = load i16, ptr %14, align 2
  %124 = zext i16 %123 to i32
  %125 = load i32, ptr %16, align 4
  %126 = call zeroext i8 @png_unpremultiply(i32 noundef %122, i32 noundef %124, i32 noundef %125)
  %127 = load ptr, ptr %13, align 8
  %128 = getelementptr inbounds i8, ptr %127, i32 1
  store ptr %128, ptr %13, align 8
  store i8 %126, ptr %127, align 1
  br label %129

129:                                              ; preds = %118
  %130 = load i32, ptr %17, align 4
  %131 = add nsw i32 %130, -1
  store i32 %131, ptr %17, align 4
  %132 = icmp sgt i32 %131, 0
  br i1 %132, label %118, label %133, !llvm.loop !20

133:                                              ; preds = %129
  %134 = load ptr, ptr %12, align 8
  %135 = getelementptr inbounds i16, ptr %134, i32 1
  store ptr %135, ptr %12, align 8
  %136 = load ptr, ptr %13, align 8
  %137 = getelementptr inbounds i8, ptr %136, i32 1
  store ptr %137, ptr %13, align 8
  br label %80, !llvm.loop !21

138:                                              ; preds = %80
  %139 = load ptr, ptr %5, align 8
  %140 = load ptr, ptr %3, align 8
  %141 = getelementptr inbounds %struct.png_image_write_control, ptr %140, i32 0, i32 7
  %142 = load ptr, ptr %141, align 8
  call void @png_write_row(ptr noundef %139, ptr noundef %142)
  %143 = load ptr, ptr %3, align 8
  %144 = getelementptr inbounds %struct.png_image_write_control, ptr %143, i32 0, i32 6
  %145 = load i64, ptr %144, align 8
  %146 = trunc i64 %145 to i16
  %147 = zext i16 %146 to i64
  %148 = udiv i64 %147, 2
  %149 = load ptr, ptr %6, align 8
  %150 = getelementptr inbounds i16, ptr %149, i64 %148
  store ptr %150, ptr %6, align 8
  br label %151

151:                                              ; preds = %138
  %152 = load i32, ptr %8, align 4
  %153 = add i32 %152, -1
  store i32 %153, ptr %8, align 4
  br label %74, !llvm.loop !22

154:                                              ; preds = %74
  br label %218

155:                                              ; preds = %1
  %156 = load ptr, ptr %7, align 8
  %157 = load ptr, ptr %4, align 8
  %158 = getelementptr inbounds %struct.png_image, ptr %157, i32 0, i32 2
  %159 = load i32, ptr %158, align 4
  %160 = load i32, ptr %9, align 4
  %161 = mul i32 %159, %160
  %162 = zext i32 %161 to i64
  %163 = getelementptr inbounds i8, ptr %156, i64 %162
  store ptr %163, ptr %18, align 8
  br label %164

164:                                              ; preds = %214, %155
  %165 = load i32, ptr %8, align 4
  %166 = icmp ugt i32 %165, 0
  br i1 %166, label %167, label %217

167:                                              ; preds = %164
  %168 = load ptr, ptr %6, align 8
  store ptr %168, ptr %19, align 8
  %169 = load ptr, ptr %7, align 8
  store ptr %169, ptr %20, align 8
  br label %170

170:                                              ; preds = %174, %167
  %171 = load ptr, ptr %20, align 8
  %172 = load ptr, ptr %18, align 8
  %173 = icmp ult ptr %171, %172
  br i1 %173, label %174, label %203

174:                                              ; preds = %170
  %175 = load ptr, ptr %19, align 8
  %176 = getelementptr inbounds i16, ptr %175, i32 1
  store ptr %176, ptr %19, align 8
  %177 = load i16, ptr %175, align 2
  %178 = zext i16 %177 to i32
  store i32 %178, ptr %21, align 4
  %179 = load i32, ptr %21, align 4
  %180 = mul i32 %179, 255
  store i32 %180, ptr %21, align 4
  %181 = load i32, ptr %21, align 4
  %182 = lshr i32 %181, 15
  %183 = zext i32 %182 to i64
  %184 = getelementptr inbounds [512 x i16], ptr @png_sRGB_base, i64 0, i64 %183
  %185 = load i16, ptr %184, align 2
  %186 = zext i16 %185 to i32
  %187 = load i32, ptr %21, align 4
  %188 = and i32 %187, 32767
  %189 = load i32, ptr %21, align 4
  %190 = lshr i32 %189, 15
  %191 = zext i32 %190 to i64
  %192 = getelementptr inbounds [512 x i8], ptr @png_sRGB_delta, i64 0, i64 %191
  %193 = load i8, ptr %192, align 1
  %194 = zext i8 %193 to i32
  %195 = mul i32 %188, %194
  %196 = lshr i32 %195, 12
  %197 = add i32 %186, %196
  %198 = lshr i32 %197, 8
  %199 = and i32 255, %198
  %200 = trunc i32 %199 to i8
  %201 = load ptr, ptr %20, align 8
  %202 = getelementptr inbounds i8, ptr %201, i32 1
  store ptr %202, ptr %20, align 8
  store i8 %200, ptr %201, align 1
  br label %170, !llvm.loop !23

203:                                              ; preds = %170
  %204 = load ptr, ptr %5, align 8
  %205 = load ptr, ptr %7, align 8
  call void @png_write_row(ptr noundef %204, ptr noundef %205)
  %206 = load ptr, ptr %3, align 8
  %207 = getelementptr inbounds %struct.png_image_write_control, ptr %206, i32 0, i32 6
  %208 = load i64, ptr %207, align 8
  %209 = trunc i64 %208 to i16
  %210 = zext i16 %209 to i64
  %211 = udiv i64 %210, 2
  %212 = load ptr, ptr %6, align 8
  %213 = getelementptr inbounds i16, ptr %212, i64 %211
  store ptr %213, ptr %6, align 8
  br label %214

214:                                              ; preds = %203
  %215 = load i32, ptr %8, align 4
  %216 = add i32 %215, -1
  store i32 %216, ptr %8, align 4
  br label %164, !llvm.loop !24

217:                                              ; preds = %164
  br label %218

218:                                              ; preds = %217, %154
  ret i32 1
}