; Function Attrs: nounwind uwtable
define internal noundef i32 @png_write_image_8bit(ptr nocapture noundef readonly %0) #0 {
  %2 = load ptr, ptr %0, align 8
  %3 = load ptr, ptr %2, align 8
  %4 = load ptr, ptr %3, align 8
  %5 = getelementptr inbounds i8, ptr %0, i64 40
  %6 = load ptr, ptr %5, align 8
  %7 = getelementptr inbounds i8, ptr %0, i64 56
  %8 = load ptr, ptr %7, align 8
  %9 = getelementptr inbounds i8, ptr %2, i64 16
  %10 = load i32, ptr %9, align 8
  %11 = getelementptr inbounds i8, ptr %2, i64 20
  %12 = load i32, ptr %11, align 4
  %13 = and i32 %12, 2
  %14 = or disjoint i32 %13, 1
  %15 = and i32 %12, 1
  %.not = icmp eq i32 %15, 0
  br i1 %.not, label %85, label %16

16:                                               ; preds = %1
  %17 = and i32 %12, 32
  %.not76.not = icmp eq i32 %17, 0
  %18 = zext nneg i32 %14 to i64
  %.070 = select i1 %.not76.not, i64 %18, i64 -1
  %.lobit = lshr exact i32 %17, 5
  %.065.idx = zext nneg i32 %.lobit to i64
  %.065 = getelementptr inbounds i8, ptr %8, i64 %.065.idx
  %19 = getelementptr inbounds i8, ptr %2, i64 12
  %20 = load i32, ptr %19, align 4
  %21 = add nuw nsw i32 %13, 2
  %22 = mul i32 %20, %21
  %23 = zext i32 %22 to i64
  %24 = getelementptr inbounds i8, ptr %.065, i64 %23
  %.not7785 = icmp eq i32 %10, 0
  br i1 %.not7785, label %.loopexit, label %.preheader78.lr.ph

.preheader78.lr.ph:                               ; preds = %16
  %.not102 = icmp eq i32 %22, 0
  %25 = getelementptr inbounds i8, ptr %0, i64 48
  br i1 %.not102, label %.preheader78, label %.preheader78.us.preheader

.preheader78.us.preheader:                        ; preds = %.preheader78.lr.ph
  %26 = lshr exact i32 %17, 4
  %.0.idx = zext nneg i32 %26 to i64
  %.0 = getelementptr inbounds i8, ptr %6, i64 %.0.idx
  %27 = lshr i32 %12, 1
  %.lobit110 = and i32 %27, 1
  %28 = zext nneg i32 %.lobit110 to i64
  %29 = shl nuw nsw i64 %28, 1
  %30 = or disjoint i64 %29, 1
  %31 = shl nuw nsw i64 %28, 2
  br label %.preheader78.us

.preheader78.us:                                  ; preds = %.preheader78.us.preheader, %._crit_edge.us
  %.187.us = phi ptr [ %81, %._crit_edge.us ], [ %.0, %.preheader78.us.preheader ]
  %.06886.us = phi i32 [ %82, %._crit_edge.us ], [ %10, %.preheader78.us.preheader ]
  br label %32

32:                                               ; preds = %.preheader78.us, %.split81.us92
  %.07184.us = phi ptr [ %.065, %.preheader78.us ], [ %75, %.split81.us92 ]
  %.07383.us = phi ptr [ %.187.us, %.preheader78.us ], [ %74, %.split81.us92 ]
  %33 = getelementptr inbounds i16, ptr %.07383.us, i64 %.070
  %34 = load i16, ptr %33, align 2
  %.fr = freeze i16 %34
  %35 = zext i16 %.fr to i32
  %36 = mul nuw nsw i32 %35, 255
  %37 = add nuw nsw i32 %36, 32895
  %38 = lshr i32 %37, 16
  %39 = trunc nuw i32 %38 to i8
  %40 = getelementptr inbounds i8, ptr %.07184.us, i64 %.070
  store i8 %39, ptr %40, align 1
  switch i32 %38, label %41 [
    i32 255, label %45
    i32 0, label %45
  ]

41:                                               ; preds = %32
  %42 = lshr i32 %35, 1
  %43 = add nuw nsw i32 %42, 2139062400
  %44 = udiv i32 %43, %35
  br label %45

45:                                               ; preds = %41, %32, %32
  %.067.us = phi i32 [ %44, %41 ], [ 0, %32 ], [ 0, %32 ]
  %46 = icmp ult i16 %.fr, 128
  %47 = icmp ult i16 %.fr, -129
  br i1 %46, label %png_unpremultiply.exit.us.us.preheader, label %.split.us95

png_unpremultiply.exit.us.us.preheader:           ; preds = %45
  tail call void @llvm.memset.p0.i64(ptr noundef nonnull align 1 dereferenceable(1) %.07184.us, i8 -1, i64 %30, i1 false)
  %scevgep = getelementptr i8, ptr %.07383.us, i64 %31
  %scevgep109 = getelementptr i8, ptr %.07184.us, i64 %29
  br label %.split81.us92

.split.us95:                                      ; preds = %45, %png_unpremultiply.exit.us91
  %.174.us88 = phi ptr [ %48, %png_unpremultiply.exit.us91 ], [ %.07383.us, %45 ]
  %.172.us89 = phi ptr [ %71, %png_unpremultiply.exit.us91 ], [ %.07184.us, %45 ]
  %.066.us90 = phi i32 [ %72, %png_unpremultiply.exit.us91 ], [ %14, %45 ]
  %48 = getelementptr inbounds i8, ptr %.174.us88, i64 2
  %49 = load i16, ptr %.174.us88, align 2
  %50 = zext i16 %49 to i32
  %.not103 = icmp ult i16 %49, %.fr
  br i1 %.not103, label %51, label %png_unpremultiply.exit.us91

51:                                               ; preds = %.split.us95
  %.not.i.us = icmp eq i16 %49, 0
  br i1 %.not.i.us, label %png_unpremultiply.exit.us91, label %52

52:                                               ; preds = %51
  %53 = mul i32 %.067.us, %50
  %54 = add i32 %53, 64
  %55 = lshr i32 %54, 7
  %56 = mul nuw nsw i32 %50, 255
  %.015.i.us = select i1 %47, i32 %55, i32 %56
  %57 = lshr i32 %.015.i.us, 15
  %58 = zext nneg i32 %57 to i64
  %59 = getelementptr inbounds [512 x i16], ptr @png_sRGB_base, i64 0, i64 %58
  %60 = load i16, ptr %59, align 2
  %61 = zext i16 %60 to i32
  %62 = and i32 %.015.i.us, 32767
  %63 = getelementptr inbounds [512 x i8], ptr @png_sRGB_delta, i64 0, i64 %58
  %64 = load i8, ptr %63, align 1
  %65 = zext i8 %64 to i32
  %66 = mul nuw nsw i32 %62, %65
  %67 = lshr i32 %66, 12
  %68 = add nuw nsw i32 %67, %61
  %69 = lshr i32 %68, 8
  %70 = trunc i32 %69 to i8
  br label %png_unpremultiply.exit.us91

png_unpremultiply.exit.us91:                      ; preds = %52, %51, %.split.us95
  %.0.i.us = phi i8 [ %70, %52 ], [ -1, %.split.us95 ], [ 0, %51 ]
  %71 = getelementptr inbounds i8, ptr %.172.us89, i64 1
  store i8 %.0.i.us, ptr %.172.us89, align 1
  %72 = add nsw i32 %.066.us90, -1
  %73 = icmp sgt i32 %.066.us90, 1
  br i1 %73, label %.split.us95, label %.split81.us92, !llvm.loop !48

.split81.us92:                                    ; preds = %png_unpremultiply.exit.us91, %png_unpremultiply.exit.us.us.preheader
  %.us-phi.us = phi ptr [ %scevgep, %png_unpremultiply.exit.us.us.preheader ], [ %.174.us88, %png_unpremultiply.exit.us91 ]
  %.us-phi82.us = phi ptr [ %scevgep109, %png_unpremultiply.exit.us.us.preheader ], [ %.172.us89, %png_unpremultiply.exit.us91 ]
  %74 = getelementptr inbounds i8, ptr %.us-phi.us, i64 4
  %75 = getelementptr inbounds i8, ptr %.us-phi82.us, i64 2
  %76 = icmp ult ptr %75, %24
  br i1 %76, label %32, label %._crit_edge.us, !llvm.loop !49

._crit_edge.us:                                   ; preds = %.split81.us92
  %77 = load ptr, ptr %7, align 8
  tail call void @png_write_row(ptr noundef %4, ptr noundef %77)
  %78 = load i64, ptr %25, align 8
  %79 = lshr i64 %78, 1
  %80 = and i64 %79, 32767
  %81 = getelementptr inbounds i16, ptr %.187.us, i64 %80
  %82 = add i32 %.06886.us, -1
  %.not77.us = icmp eq i32 %82, 0
  br i1 %.not77.us, label %.loopexit, label %.preheader78.us, !llvm.loop !50

.preheader78:                                     ; preds = %.preheader78.lr.ph, %.preheader78
  %.06886 = phi i32 [ %84, %.preheader78 ], [ %10, %.preheader78.lr.ph ]
  %83 = load ptr, ptr %7, align 8
  tail call void @png_write_row(ptr noundef %4, ptr noundef %83)
  %84 = add i32 %.06886, -1
  %.not77 = icmp eq i32 %84, 0
  br i1 %.not77, label %.loopexit, label %.preheader78, !llvm.loop !50

85:                                               ; preds = %1
  %86 = getelementptr inbounds i8, ptr %2, i64 12
  %87 = load i32, ptr %86, align 4
  %88 = mul i32 %87, %14
  %89 = zext i32 %88 to i64
  %90 = getelementptr inbounds i8, ptr %8, i64 %89
  %.not7598 = icmp eq i32 %10, 0
  br i1 %.not7598, label %.loopexit, label %.preheader.lr.ph

.preheader.lr.ph:                                 ; preds = %85
  %.not104 = icmp eq i32 %87, 0
  %91 = getelementptr inbounds i8, ptr %0, i64 48
  br i1 %.not104, label %.preheader, label %.preheader.us

.preheader.us:                                    ; preds = %.preheader.lr.ph, %._crit_edge.us101
  %.2100.us = phi ptr [ %116, %._crit_edge.us101 ], [ %6, %.preheader.lr.ph ]
  %.16999.us = phi i32 [ %117, %._crit_edge.us101 ], [ %10, %.preheader.lr.ph ]
  br label %92

92:                                               ; preds = %.preheader.us, %92
  %.06397.us = phi ptr [ %8, %.preheader.us ], [ %111, %92 ]
  %.06496.us = phi ptr [ %.2100.us, %.preheader.us ], [ %93, %92 ]
  %93 = getelementptr inbounds i8, ptr %.06496.us, i64 2
  %94 = load i16, ptr %.06496.us, align 2
  %95 = zext i16 %94 to i32
  %96 = mul nuw nsw i32 %95, 255
  %97 = lshr i32 %96, 15
  %98 = zext nneg i32 %97 to i64
  %99 = getelementptr inbounds [512 x i16], ptr @png_sRGB_base, i64 0, i64 %98
  %100 = load i16, ptr %99, align 2
  %101 = zext i16 %100 to i32
  %102 = and i32 %96, 32767
  %103 = getelementptr inbounds [512 x i8], ptr @png_sRGB_delta, i64 0, i64 %98
  %104 = load i8, ptr %103, align 1
  %105 = zext i8 %104 to i32
  %106 = mul nuw nsw i32 %102, %105
  %107 = lshr i32 %106, 12
  %108 = add nuw nsw i32 %107, %101
  %109 = lshr i32 %108, 8
  %110 = trunc i32 %109 to i8
  %111 = getelementptr inbounds i8, ptr %.06397.us, i64 1
  store i8 %110, ptr %.06397.us, align 1
  %112 = icmp ult ptr %111, %90
  br i1 %112, label %92, label %._crit_edge.us101, !llvm.loop !51

._crit_edge.us101:                                ; preds = %92
  tail call void @png_write_row(ptr noundef %4, ptr noundef %8)
  %113 = load i64, ptr %91, align 8
  %114 = lshr i64 %113, 1
  %115 = and i64 %114, 32767
  %116 = getelementptr inbounds i16, ptr %.2100.us, i64 %115
  %117 = add i32 %.16999.us, -1
  %.not75.us = icmp eq i32 %117, 0
  br i1 %.not75.us, label %.loopexit, label %.preheader.us, !llvm.loop !52

.preheader:                                       ; preds = %.preheader.lr.ph, %.preheader
  %.16999 = phi i32 [ %118, %.preheader ], [ %10, %.preheader.lr.ph ]
  tail call void @png_write_row(ptr noundef %4, ptr noundef %8)
  %118 = add i32 %.16999, -1
  %.not75 = icmp eq i32 %118, 0
  br i1 %.not75, label %.loopexit, label %.preheader, !llvm.loop !52

.loopexit:                                        ; preds = %._crit_edge.us, %.preheader78, %._crit_edge.us101, %.preheader, %16, %85
  ret i32 1
}